target datalayout = "e-m:e-p270:32:32-p271:32:32-p272:64:64-i64:64-i128:128-f80:128-n8:16:32:64-S128"
target triple = "x86_64-unknown-linux-gnu"

%"class.absl::lts_20230802::log_internal::LogMessageFatal" = type { %"class.absl::lts_20230802::log_internal::LogMessage" }
%"class.absl::lts_20230802::log_internal::LogMessage" = type { %"class.absl::lts_20230802::base_internal::ErrnoSaver", %"class.std::unique_ptr" }
%"class.absl::lts_20230802::base_internal::ErrnoSaver" = type { i32 }
%"class.std::unique_ptr" = type { %"struct.std::__uniq_ptr_data" }
%"struct.std::__uniq_ptr_data" = type { %"class.std::__uniq_ptr_impl" }
%"class.std::__uniq_ptr_impl" = type { %"class.std::tuple" }
%"class.std::tuple" = type { %"struct.std::_Tuple_impl" }
%"struct.std::_Tuple_impl" = type { %"struct.std::_Head_base.1" }
%"struct.std::_Head_base.1" = type { ptr }
%"class.std::basic_string_view" = type { i64, ptr }
%struct.z_stream_s = type { ptr, i32, i64, ptr, i32, i64, ptr, ptr, ptr, ptr, ptr, i32, i64, i64 }
%"class.google::protobuf::io::GzipOutputStream" = type { %"class.google::protobuf::io::ZeroCopyOutputStream", ptr, ptr, i32, %struct.z_stream_s, i32, ptr, i64 }
%"class.google::protobuf::io::ZeroCopyOutputStream" = type { ptr }

@.str = private unnamed_addr constant [133 x i8] c"generated/home/dtcxzyw/WorkSpace/Projects/compilers/llvm-opt-benchmark/bench/protobuf/protobuf/src/google/protobuf/io/gzip_stream.cc\00", align 1
@.str.4 = private unnamed_addr constant [19 x i8] c"sub_data_size_ > 0\00", align 1

; Function Attrs: mustprogress uwtable
define linkonce_odr hidden noundef ptr @_ZN4absl12lts_2023080212log_internal12Check_GTImplIiiEEPNSt7__cxx1112basic_stringIcSt11char_traitsIcESaIcEEERKT_RKT0_PKc(ptr noundef nonnull align 4 dereferenceable(4) %v1, ptr noundef nonnull align 4 dereferenceable(4) %v2, ptr noundef %exprtext) #4 comdat {
entry:
  %v1.addr = alloca ptr, align 8
  %v2.addr = alloca ptr, align 8
  %exprtext.addr = alloca ptr, align 8
  store ptr %v1, ptr %v1.addr, align 8
  store ptr %v2, ptr %v2.addr, align 8
  store ptr %exprtext, ptr %exprtext.addr, align 8
  %0 = load ptr, ptr %v1.addr, align 8
  %1 = load i32, ptr %0, align 4
  %2 = load ptr, ptr %v2.addr, align 8
  %3 = load i32, ptr %2, align 4
  %cmp = icmp sgt i32 %1, %3
  br i1 %cmp, label %cond.true, label %cond.false

cond.true:                                        ; preds = %entry
  br label %cond.end

cond.false:                                       ; preds = %entry
  %4 = load ptr, ptr %v1.addr, align 8
  %5 = load i32, ptr %4, align 4
  %conv = sext i32 %5 to i64
  %6 = load ptr, ptr %v2.addr, align 8
  %7 = load i32, ptr %6, align 4
  %conv1 = sext i32 %7 to i64
  %8 = load ptr, ptr %exprtext.addr, align 8
  %call = call noundef nonnull ptr @_ZN4absl12lts_2023080212log_internal17MakeCheckOpStringIllEEPNSt7__cxx1112basic_stringIcSt11char_traitsIcESaIcEEET_T0_PKc(i64 noundef %conv, i64 noundef %conv1, ptr noundef %8)
  br label %cond.end

cond.end:                                         ; preds = %cond.false, %cond.true
  %cond = phi ptr [ null, %cond.true ], [ %call, %cond.false ]
  ret ptr %cond
}

; Function Attrs: mustprogress nounwind uwtable
define linkonce_odr hidden noundef nonnull align 8 dereferenceable(16) ptr @_ZN4absl12lts_2023080212log_internal10LogMessage14InternalStreamEv(ptr noundef nonnull align 8 dereferenceable(16) %this) #5 comdat align 2 {
entry:
  %this.addr = alloca ptr, align 8
  store ptr %this, ptr %this.addr, align 8
  %this1 = load ptr, ptr %this.addr, align 8
  ret ptr %this1
}

; Function Attrs: mustprogress uwtable
define linkonce_odr hidden noundef ptr @_ZN4absl12lts_2023080212log_internal12Check_GTImplB5cxx11EiiPKc(i32 noundef %v1, i32 noundef %v2, ptr noundef %exprtext) #4 comdat {
entry:
  %v1.addr = alloca i32, align 4
  %v2.addr = alloca i32, align 4
  %exprtext.addr = alloca ptr, align 8
  store i32 %v1, ptr %v1.addr, align 4
  store i32 %v2, ptr %v2.addr, align 4
  store ptr %exprtext, ptr %exprtext.addr, align 8
  %0 = load ptr, ptr %exprtext.addr, align 8
  %call = call noundef ptr @_ZN4absl12lts_2023080212log_internal12Check_GTImplIiiEEPNSt7__cxx1112basic_stringIcSt11char_traitsIcESaIcEEERKT_RKT0_PKc(ptr noundef nonnull align 4 dereferenceable(4) %v1.addr, ptr noundef nonnull align 4 dereferenceable(4) %v2.addr, ptr noundef %0)
  ret ptr %call
}

; Function Attrs: mustprogress nounwind uwtable
define linkonce_odr hidden noundef i32 @_ZN4absl12lts_2023080212log_internal21GetReferenceableValueEi(i32 noundef %t) #5 comdat {
entry:
  %t.addr = alloca i32, align 4
  store i32 %t, ptr %t.addr, align 4
  %0 = load i32, ptr %t.addr, align 4
  ret i32 %0
}

; Function Attrs: mustprogress uwtable
define noundef i32 @_ZN6google8protobuf2io16GzipOutputStream7DeflateEi(ptr noundef nonnull align 8 dereferenceable(168) %this, i32 noundef %flush) #4 align 2 personality ptr @__gxx_personality_v0 {
entry:
  %retval = alloca i32, align 4
  %this.addr = alloca ptr, align 8
  %flush.addr = alloca i32, align 4
  %error = alloca i32, align 4
  %ok = alloca i8, align 1
  %absl_log_internal_check_op_result = alloca ptr, align 8
  %ref.tmp = alloca %"class.absl::lts_20230802::log_internal::LogMessageFatal", align 8
  %agg.tmp = alloca %"class.std::basic_string_view", align 8
  %exn.slot = alloca ptr, align 8
  %ehselector.slot = alloca i32, align 4
  store ptr %this, ptr %this.addr, align 8
  store i32 %flush, ptr %flush.addr, align 4
  %this1 = load ptr, ptr %this.addr, align 8
  store i32 0, ptr %error, align 4
  br label %do.body

do.body:                                          ; preds = %land.end, %entry
  %sub_data_ = getelementptr inbounds %"class.google::protobuf::io::GzipOutputStream", ptr %this1, i32 0, i32 2
  %0 = load ptr, ptr %sub_data_, align 8
  %cmp = icmp eq ptr %0, null
  br i1 %cmp, label %if.then, label %lor.lhs.false

lor.lhs.false:                                    ; preds = %do.body
  %zcontext_ = getelementptr inbounds %"class.google::protobuf::io::GzipOutputStream", ptr %this1, i32 0, i32 4
  %avail_out = getelementptr inbounds %struct.z_stream_s, ptr %zcontext_, i32 0, i32 4
  %1 = load i32, ptr %avail_out, align 8
  %cmp2 = icmp eq i32 %1, 0
  br i1 %cmp2, label %if.then, label %if.end19

if.then:                                          ; preds = %lor.lhs.false, %do.body
  %sub_stream_ = getelementptr inbounds %"class.google::protobuf::io::GzipOutputStream", ptr %this1, i32 0, i32 1
  %2 = load ptr, ptr %sub_stream_, align 8
  %sub_data_3 = getelementptr inbounds %"class.google::protobuf::io::GzipOutputStream", ptr %this1, i32 0, i32 2
  %sub_data_size_ = getelementptr inbounds %"class.google::protobuf::io::GzipOutputStream", ptr %this1, i32 0, i32 3
  %vtable = load ptr, ptr %2, align 8
  %vfn = getelementptr inbounds ptr, ptr %vtable, i64 2
  %3 = load ptr, ptr %vfn, align 8
  %call = call noundef zeroext i1 %3(ptr noundef nonnull align 8 dereferenceable(8) %2, ptr noundef %sub_data_3, ptr noundef %sub_data_size_)
  %frombool = zext i1 %call to i8
  store i8 %frombool, ptr %ok, align 1
  %4 = load i8, ptr %ok, align 1
  %tobool = trunc i8 %4 to i1
  br i1 %tobool, label %if.end, label %if.then4

if.then4:                                         ; preds = %if.then
  %sub_data_5 = getelementptr inbounds %"class.google::protobuf::io::GzipOutputStream", ptr %this1, i32 0, i32 2
  store ptr null, ptr %sub_data_5, align 8
  %sub_data_size_6 = getelementptr inbounds %"class.google::protobuf::io::GzipOutputStream", ptr %this1, i32 0, i32 3
  store i32 0, ptr %sub_data_size_6, align 8
  store i32 -5, ptr %retval, align 4
  br label %return

if.end:                                           ; preds = %if.then
  br label %while.cond

while.cond:                                       ; preds = %if.end
  %sub_data_size_7 = getelementptr inbounds %"class.google::protobuf::io::GzipOutputStream", ptr %this1, i32 0, i32 3
  %5 = load i32, ptr %sub_data_size_7, align 8
  %call8 = call noundef i32 @_ZN4absl12lts_2023080212log_internal21GetReferenceableValueEi(i32 noundef %5)
  %call9 = call noundef i32 @_ZN4absl12lts_2023080212log_internal21GetReferenceableValueEi(i32 noundef 0)
  %call10 = call noundef ptr @_ZN4absl12lts_2023080212log_internal12Check_GTImplB5cxx11EiiPKc(i32 noundef %call8, i32 noundef %call9, ptr noundef @.str.4)
  store ptr %call10, ptr %absl_log_internal_check_op_result, align 8
  %6 = load ptr, ptr %absl_log_internal_check_op_result, align 8
  %tobool11 = icmp ne ptr %6, null
  br i1 %tobool11, label %while.body, label %while.end

while.body:                                       ; preds = %while.cond
  %7 = load ptr, ptr %absl_log_internal_check_op_result, align 8
  %call12 = call { i64, ptr } @_ZNKSt7__cxx1112basic_stringIcSt11char_traitsIcESaIcEEcvSt17basic_string_viewIcS2_EEv(ptr noundef nonnull align 8 dereferenceable(32) %7) #3
  %8 = getelementptr inbounds { i64, ptr }, ptr %agg.tmp, i32 0, i32 0
  %9 = extractvalue { i64, ptr } %call12, 0
  store i64 %9, ptr %8, align 8
  %10 = getelementptr inbounds { i64, ptr }, ptr %agg.tmp, i32 0, i32 1
  %11 = extractvalue { i64, ptr } %call12, 1
  store ptr %11, ptr %10, align 8
  %12 = getelementptr inbounds { i64, ptr }, ptr %agg.tmp, i32 0, i32 0
  %13 = load i64, ptr %12, align 8
  %14 = getelementptr inbounds { i64, ptr }, ptr %agg.tmp, i32 0, i32 1
  %15 = load ptr, ptr %14, align 8
  call void @_ZN4absl12lts_2023080212log_internal15LogMessageFatalC1EPKciSt17basic_string_viewIcSt11char_traitsIcEE(ptr noundef nonnull align 8 dereferenceable(16) %ref.tmp, ptr noundef @.str, i32 noundef 240, i64 %13, ptr %15) #12
  %call13 = invoke noundef nonnull align 8 dereferenceable(16) ptr @_ZN4absl12lts_2023080212log_internal10LogMessage14InternalStreamEv(ptr noundef nonnull align 8 dereferenceable(16) %ref.tmp)
          to label %invoke.cont unwind label %lpad

invoke.cont:                                      ; preds = %while.body
  call void @_ZN4absl12lts_2023080212log_internal15LogMessageFatalD1Ev(ptr noundef nonnull align 8 dereferenceable(16) %ref.tmp) #13
  unreachable

lpad:                                             ; preds = %while.body
  %16 = landingpad { ptr, i32 }
          cleanup
  %17 = extractvalue { ptr, i32 } %16, 0
  store ptr %17, ptr %exn.slot, align 8
  %18 = extractvalue { ptr, i32 } %16, 1
  store i32 %18, ptr %ehselector.slot, align 4
  call void @_ZN4absl12lts_2023080212log_internal15LogMessageFatalD1Ev(ptr noundef nonnull align 8 dereferenceable(16) %ref.tmp) #13
  unreachable

19:                                               ; No predecessors!
  br label %eh.resume

while.end:                                        ; preds = %while.cond
  %sub_data_14 = getelementptr inbounds %"class.google::protobuf::io::GzipOutputStream", ptr %this1, i32 0, i32 2
  %20 = load ptr, ptr %sub_data_14, align 8
  %zcontext_15 = getelementptr inbounds %"class.google::protobuf::io::GzipOutputStream", ptr %this1, i32 0, i32 4
  %next_out = getelementptr inbounds %struct.z_stream_s, ptr %zcontext_15, i32 0, i32 3
  store ptr %20, ptr %next_out, align 8
  %sub_data_size_16 = getelementptr inbounds %"class.google::protobuf::io::GzipOutputStream", ptr %this1, i32 0, i32 3
  %21 = load i32, ptr %sub_data_size_16, align 8
  %zcontext_17 = getelementptr inbounds %"class.google::protobuf::io::GzipOutputStream", ptr %this1, i32 0, i32 4
  %avail_out18 = getelementptr inbounds %struct.z_stream_s, ptr %zcontext_17, i32 0, i32 4
  store i32 %21, ptr %avail_out18, align 8
  br label %if.end19

if.end19:                                         ; preds = %while.end, %lor.lhs.false
  %zcontext_20 = getelementptr inbounds %"class.google::protobuf::io::GzipOutputStream", ptr %this1, i32 0, i32 4
  %22 = load i32, ptr %flush.addr, align 4
  %call21 = call i32 @deflate(ptr noundef %zcontext_20, i32 noundef %22)
  store i32 %call21, ptr %error, align 4
  br label %do.cond

do.cond:                                          ; preds = %if.end19
  %23 = load i32, ptr %error, align 4
  %cmp22 = icmp eq i32 %23, 0
  br i1 %cmp22, label %land.rhs, label %land.end

land.rhs:                                         ; preds = %do.cond
  %zcontext_23 = getelementptr inbounds %"class.google::protobuf::io::GzipOutputStream", ptr %this1, i32 0, i32 4
  %avail_out24 = getelementptr inbounds %struct.z_stream_s, ptr %zcontext_23, i32 0, i32 4
  %24 = load i32, ptr %avail_out24, align 8
  %cmp25 = icmp eq i32 %24, 0
  br label %land.end

land.end:                                         ; preds = %land.rhs, %do.cond
  %25 = phi i1 [ false, %do.cond ], [ %cmp25, %land.rhs ]
  br i1 %25, label %do.body, label %do.end, !llvm.loop !7

do.end:                                           ; preds = %land.end
  %26 = load i32, ptr %flush.addr, align 4
  %cmp26 = icmp eq i32 %26, 3
  br i1 %cmp26, label %if.then29, label %lor.lhs.false27

lor.lhs.false27:                                  ; preds = %do.end
  %27 = load i32, ptr %flush.addr, align 4
  %cmp28 = icmp eq i32 %27, 4
  br i1 %cmp28, label %if.then29, label %if.end37

if.then29:                                        ; preds = %lor.lhs.false27, %do.end
  %sub_stream_30 = getelementptr inbounds %"class.google::protobuf::io::GzipOutputStream", ptr %this1, i32 0, i32 1
  %28 = load ptr, ptr %sub_stream_30, align 8
  %zcontext_31 = getelementptr inbounds %"class.google::protobuf::io::GzipOutputStream", ptr %this1, i32 0, i32 4
  %avail_out32 = getelementptr inbounds %struct.z_stream_s, ptr %zcontext_31, i32 0, i32 4
  %29 = load i32, ptr %avail_out32, align 8
  %vtable33 = load ptr, ptr %28, align 8
  %vfn34 = getelementptr inbounds ptr, ptr %vtable33, i64 3
  %30 = load ptr, ptr %vfn34, align 8
  call void %30(ptr noundef nonnull align 8 dereferenceable(8) %28, i32 noundef %29)
  %sub_data_35 = getelementptr inbounds %"class.google::protobuf::io::GzipOutputStream", ptr %this1, i32 0, i32 2
  store ptr null, ptr %sub_data_35, align 8
  %sub_data_size_36 = getelementptr inbounds %"class.google::protobuf::io::GzipOutputStream", ptr %this1, i32 0, i32 3
  store i32 0, ptr %sub_data_size_36, align 8
  br label %if.end37

if.end37:                                         ; preds = %if.then29, %lor.lhs.false27
  %31 = load i32, ptr %error, align 4
  store i32 %31, ptr %retval, align 4
  br label %return

return:                                           ; preds = %if.end37, %if.then4
  %32 = load i32, ptr %retval, align 4
  ret i32 %32

eh.resume:                                        ; preds = %19
  %exn = load ptr, ptr %exn.slot, align 8
  %sel = load i32, ptr %ehselector.slot, align 4
  %lpad.val = insertvalue { ptr, i32 } poison, ptr %exn, 0
  %lpad.val38 = insertvalue { ptr, i32 } %lpad.val, i32 %sel, 1
  resume { ptr, i32 } %lpad.val38
}