; Function Attrs: mustprogress uwtable
define noundef i32 @_ZN6google8protobuf2io16GzipOutputStream7DeflateEi(ptr noundef nonnull align 8 dereferenceable(168) %this, i32 noundef %flush) local_unnamed_addr #3 align 2 personality ptr @__gxx_personality_v0 {
entry:
  %ref.tmp = alloca %"class.absl::lts_20230802::log_internal::LogMessageFatal", align 8
  %sub_data_ = getelementptr inbounds i8, ptr %this, i64 16
  %avail_out = getelementptr inbounds i8, ptr %this, i64 64
  %sub_stream_ = getelementptr inbounds i8, ptr %this, i64 8
  %sub_data_size_ = getelementptr inbounds i8, ptr %this, i64 24
  %next_out = getelementptr inbounds i8, ptr %this, i64 56
  %zcontext_20 = getelementptr inbounds i8, ptr %this, i64 32
  %.pre = load i32, ptr %avail_out, align 8
  %0 = icmp eq i32 %.pre, 0
  br label %do.body

do.body:                                          ; preds = %if.end19, %entry
  %cmp2 = phi i1 [ true, %if.end19 ], [ %0, %entry ]
  %1 = load ptr, ptr %sub_data_, align 8
  %cmp = icmp eq ptr %1, null
  %or.cond5 = select i1 %cmp, i1 true, i1 %cmp2
  br i1 %or.cond5, label %if.then, label %if.end19

if.then:                                          ; preds = %do.body
  %2 = load ptr, ptr %sub_stream_, align 8
  %vtable = load ptr, ptr %2, align 8
  %vfn = getelementptr inbounds i8, ptr %vtable, i64 16
  %3 = load ptr, ptr %vfn, align 8
  %call = tail call noundef zeroext i1 %3(ptr noundef nonnull align 8 dereferenceable(8) %2, ptr noundef nonnull %sub_data_, ptr noundef nonnull %sub_data_size_)
  br i1 %call, label %while.cond, label %return.sink.split

while.cond:                                       ; preds = %if.then
  %4 = load i32, ptr %sub_data_size_, align 8
  %cmp.i.i = icmp sgt i32 %4, 0
  br i1 %cmp.i.i, label %while.end, label %while.body

while.body:                                       ; preds = %while.cond
  %conv.i.i = sext i32 %4 to i64
  %call.i.i = tail call noundef nonnull ptr @_ZN4absl12lts_2023080212log_internal17MakeCheckOpStringIllEEPNSt7__cxx1112basic_stringIcSt11char_traitsIcESaIcEEET_T0_PKc(i64 noundef %conv.i.i, i64 noundef 0, ptr noundef nonnull @.str.4)
  %call12 = tail call { i64, ptr } @_ZNKSt7__cxx1112basic_stringIcSt11char_traitsIcESaIcEEcvSt17basic_string_viewIcS2_EEv(ptr noundef nonnull align 8 dereferenceable(32) %call.i.i) #16
  %5 = extractvalue { i64, ptr } %call12, 0
  %6 = extractvalue { i64, ptr } %call12, 1
  call void @_ZN4absl12lts_2023080212log_internal15LogMessageFatalC1EPKciSt17basic_string_viewIcSt11char_traitsIcEE(ptr noundef nonnull align 8 dereferenceable(16) %ref.tmp, ptr noundef nonnull @.str, i32 noundef 240, i64 %5, ptr %6) #19
  call void @_ZN4absl12lts_2023080212log_internal15LogMessageFatalD1Ev(ptr noundef nonnull align 8 dereferenceable(16) %ref.tmp) #17
  unreachable

while.end:                                        ; preds = %while.cond
  %7 = load ptr, ptr %sub_data_, align 8
  store ptr %7, ptr %next_out, align 8
  store i32 %4, ptr %avail_out, align 8
  br label %if.end19

if.end19:                                         ; preds = %do.body, %while.end
  %call21 = tail call i32 @deflate(ptr noundef nonnull %zcontext_20, i32 noundef %flush)
  %cmp22 = icmp eq i32 %call21, 0
  %8 = load i32, ptr %avail_out, align 8
  %cmp25 = icmp eq i32 %8, 0
  %or.cond6 = select i1 %cmp22, i1 %cmp25, i1 false
  br i1 %or.cond6, label %do.body, label %do.end, !llvm.loop !7

do.end:                                           ; preds = %if.end19
  %9 = add i32 %flush, -3
  %or.cond = icmp ult i32 %9, 2
  br i1 %or.cond, label %if.then29, label %return

if.then29:                                        ; preds = %do.end
  %10 = load ptr, ptr %sub_stream_, align 8
  %vtable33 = load ptr, ptr %10, align 8
  %vfn34 = getelementptr inbounds i8, ptr %vtable33, i64 24
  %11 = load ptr, ptr %vfn34, align 8
  tail call void %11(ptr noundef nonnull align 8 dereferenceable(8) %10, i32 noundef %8)
  br label %return.sink.split

return.sink.split:                                ; preds = %if.then, %if.then29
  %retval.0.ph = phi i32 [ %call21, %if.then29 ], [ -5, %if.then ]
  store ptr null, ptr %sub_data_, align 8
  store i32 0, ptr %sub_data_size_, align 8
  br label %return

return:                                           ; preds = %return.sink.split, %do.end
  %retval.0 = phi i32 [ %call21, %do.end ], [ %retval.0.ph, %return.sink.split ]
  ret i32 %retval.0
}